; ModuleID = '32/2320.c'
source_filename = "32/2320.c"
target datalayout = "e-m:e-p270:32:32-p271:32:32-p272:64:64-i64:64-f80:128-n8:16:32:64-S128"
target triple = "x86_64-pc-linux-gnu"

@.str = private unnamed_addr constant [4 x i8] c"%d\0A\00", align 1
@.str.1 = private unnamed_addr constant [3 x i8] c"%c\00", align 1
@.str.2 = private unnamed_addr constant [2 x i8] c"\0A\00", align 1

; Function Attrs: noinline nounwind uwtable
define dso_local i32 @main() #0 {
  %1 = alloca i32, align 4
  %2 = alloca i32, align 4
  %3 = alloca i32, align 4
  %4 = alloca i32, align 4
  %5 = alloca i32, align 4
  %6 = alloca i32, align 4
  %7 = alloca i32, align 4
  %8 = alloca i32, align 4
  %9 = alloca [110 x i8], align 16
  %10 = alloca [110 x i8], align 16
  %11 = alloca i8, align 1
  store i32 0, i32* %1, align 4
  %12 = call i32 (i8*, ...) @__isoc99_scanf(i8* getelementptr inbounds ([4 x i8], [4 x i8]* @.str, i64 0, i64 0), i32* %2)
  br label %13

13:                                               ; preds = %204, %0
  %14 = load i32, i32* %2, align 4
  %15 = icmp sgt i32 %14, 0
  br i1 %15, label %16, label %207

16:                                               ; preds = %13
  %17 = getelementptr inbounds [110 x i8], [110 x i8]* %9, i64 0, i64 0
  %18 = call i32 (i8*, ...) bitcast (i32 (...)* @gets to i32 (i8*, ...)*)(i8* %17)
  %19 = getelementptr inbounds [110 x i8], [110 x i8]* %10, i64 0, i64 0
  %20 = call i32 (i8*, ...) bitcast (i32 (...)* @gets to i32 (i8*, ...)*)(i8* %19)
  %21 = getelementptr inbounds [110 x i8], [110 x i8]* %9, i64 0, i64 0
  %22 = call i64 @strlen(i8* %21) #3
  %23 = trunc i64 %22 to i32
  store i32 %23, i32* %5, align 4
  %24 = getelementptr inbounds [110 x i8], [110 x i8]* %10, i64 0, i64 0
  %25 = call i64 @strlen(i8* %24) #3
  %26 = trunc i64 %25 to i32
  store i32 %26, i32* %6, align 4
  store i32 0, i32* %3, align 4
  br label %27

27:                                               ; preds = %54, %16
  %28 = load i32, i32* %3, align 4
  %29 = load i32, i32* %6, align 4
  %30 = sdiv i32 %29, 2
  %31 = icmp slt i32 %28, %30
  br i1 %31, label %32, label %57

32:                                               ; preds = %27
  %33 = load i32, i32* %3, align 4
  %34 = sext i32 %33 to i64
  %35 = getelementptr inbounds [110 x i8], [110 x i8]* %10, i64 0, i64 %34
  %36 = load i8, i8* %35, align 1
  store i8 %36, i8* %11, align 1
  %37 = load i32, i32* %6, align 4
  %38 = load i32, i32* %3, align 4
  %39 = sub nsw i32 %37, %38
  %40 = sub nsw i32 %39, 1
  %41 = sext i32 %40 to i64
  %42 = getelementptr inbounds [110 x i8], [110 x i8]* %10, i64 0, i64 %41
  %43 = load i8, i8* %42, align 1
  %44 = load i32, i32* %3, align 4
  %45 = sext i32 %44 to i64
  %46 = getelementptr inbounds [110 x i8], [110 x i8]* %10, i64 0, i64 %45
  store i8 %43, i8* %46, align 1
  %47 = load i8, i8* %11, align 1
  %48 = load i32, i32* %6, align 4
  %49 = load i32, i32* %3, align 4
  %50 = sub nsw i32 %48, %49
  %51 = sub nsw i32 %50, 1
  %52 = sext i32 %51 to i64
  %53 = getelementptr inbounds [110 x i8], [110 x i8]* %10, i64 0, i64 %52
  store i8 %47, i8* %53, align 1
  br label %54

54:                                               ; preds = %32
  %55 = load i32, i32* %3, align 4
  %56 = add nsw i32 %55, 1
  store i32 %56, i32* %3, align 4
  br label %27

57:                                               ; preds = %27
  store i32 0, i32* %3, align 4
  br label %58

58:                                               ; preds = %85, %57
  %59 = load i32, i32* %3, align 4
  %60 = load i32, i32* %5, align 4
  %61 = sdiv i32 %60, 2
  %62 = icmp slt i32 %59, %61
  br i1 %62, label %63, label %88

63:                                               ; preds = %58
  %64 = load i32, i32* %3, align 4
  %65 = sext i32 %64 to i64
  %66 = getelementptr inbounds [110 x i8], [110 x i8]* %9, i64 0, i64 %65
  %67 = load i8, i8* %66, align 1
  store i8 %67, i8* %11, align 1
  %68 = load i32, i32* %5, align 4
  %69 = load i32, i32* %3, align 4
  %70 = sub nsw i32 %68, %69
  %71 = sub nsw i32 %70, 1
  %72 = sext i32 %71 to i64
  %73 = getelementptr inbounds [110 x i8], [110 x i8]* %9, i64 0, i64 %72
  %74 = load i8, i8* %73, align 1
  %75 = load i32, i32* %3, align 4
  %76 = sext i32 %75 to i64
  %77 = getelementptr inbounds [110 x i8], [110 x i8]* %9, i64 0, i64 %76
  store i8 %74, i8* %77, align 1
  %78 = load i8, i8* %11, align 1
  %79 = load i32, i32* %5, align 4
  %80 = load i32, i32* %3, align 4
  %81 = sub nsw i32 %79, %80
  %82 = sub nsw i32 %81, 1
  %83 = sext i32 %82 to i64
  %84 = getelementptr inbounds [110 x i8], [110 x i8]* %9, i64 0, i64 %83
  store i8 %78, i8* %84, align 1
  br label %85

85:                                               ; preds = %63
  %86 = load i32, i32* %3, align 4
  %87 = add nsw i32 %86, 1
  store i32 %87, i32* %3, align 4
  br label %58

88:                                               ; preds = %58
  store i32 0, i32* %3, align 4
  br label %89

89:                                               ; preds = %164, %88
  %90 = load i32, i32* %3, align 4
  %91 = load i32, i32* %6, align 4
  %92 = icmp slt i32 %90, %91
  br i1 %92, label %93, label %167

93:                                               ; preds = %89
  %94 = load i32, i32* %3, align 4
  %95 = sext i32 %94 to i64
  %96 = getelementptr inbounds [110 x i8], [110 x i8]* %9, i64 0, i64 %95
  %97 = load i8, i8* %96, align 1
  %98 = sext i8 %97 to i32
  %99 = load i32, i32* %3, align 4
  %100 = sext i32 %99 to i64
  %101 = getelementptr inbounds [110 x i8], [110 x i8]* %10, i64 0, i64 %100
  %102 = load i8, i8* %101, align 1
  %103 = sext i8 %102 to i32
  %104 = icmp sge i32 %98, %103
  br i1 %104, label %105, label %122

105:                                              ; preds = %93
  %106 = load i32, i32* %3, align 4
  %107 = sext i32 %106 to i64
  %108 = getelementptr inbounds [110 x i8], [110 x i8]* %9, i64 0, i64 %107
  %109 = load i8, i8* %108, align 1
  %110 = sext i8 %109 to i32
  %111 = add nsw i32 48, %110
  %112 = load i32, i32* %3, align 4
  %113 = sext i32 %112 to i64
  %114 = getelementptr inbounds [110 x i8], [110 x i8]* %10, i64 0, i64 %113
  %115 = load i8, i8* %114, align 1
  %116 = sext i8 %115 to i32
  %117 = sub nsw i32 %111, %116
  %118 = trunc i32 %117 to i8
  %119 = load i32, i32* %3, align 4
  %120 = sext i32 %119 to i64
  %121 = getelementptr inbounds [110 x i8], [110 x i8]* %9, i64 0, i64 %120
  store i8 %118, i8* %121, align 1
  br label %163

122:                                              ; preds = %93
  %123 = load i32, i32* %3, align 4
  %124 = add nsw i32 %123, 1
  store i32 %124, i32* %4, align 4
  br label %125

125:                                              ; preds = %132, %122
  %126 = load i32, i32* %4, align 4
  %127 = sext i32 %126 to i64
  %128 = getelementptr inbounds [110 x i8], [110 x i8]* %9, i64 0, i64 %127
  %129 = load i8, i8* %128, align 1
  %130 = sext i8 %129 to i32
  %131 = icmp eq i32 %130, 48
  br i1 %131, label %132, label %138

132:                                              ; preds = %125
  %133 = load i32, i32* %4, align 4
  %134 = sext i32 %133 to i64
  %135 = getelementptr inbounds [110 x i8], [110 x i8]* %9, i64 0, i64 %134
  store i8 57, i8* %135, align 1
  %136 = load i32, i32* %4, align 4
  %137 = add nsw i32 %136, 1
  store i32 %137, i32* %4, align 4
  br label %125

138:                                              ; preds = %125
  %139 = load i32, i32* %4, align 4
  %140 = sext i32 %139 to i64
  %141 = getelementptr inbounds [110 x i8], [110 x i8]* %9, i64 0, i64 %140
  %142 = load i8, i8* %141, align 1
  %143 = sext i8 %142 to i32
  %144 = sub nsw i32 %143, 1
  %145 = trunc i32 %144 to i8
  store i8 %145, i8* %141, align 1
  %146 = load i32, i32* %3, align 4
  %147 = sext i32 %146 to i64
  %148 = getelementptr inbounds [110 x i8], [110 x i8]* %9, i64 0, i64 %147
  %149 = load i8, i8* %148, align 1
  %150 = sext i8 %149 to i32
  %151 = add nsw i32 %150, 10
  %152 = load i32, i32* %3, align 4
  %153 = sext i32 %152 to i64
  %154 = getelementptr inbounds [110 x i8], [110 x i8]* %10, i64 0, i64 %153
  %155 = load i8, i8* %154, align 1
  %156 = sext i8 %155 to i32
  %157 = sub nsw i32 %151, %156
  %158 = add nsw i32 %157, 48
  %159 = trunc i32 %158 to i8
  %160 = load i32, i32* %3, align 4
  %161 = sext i32 %160 to i64
  %162 = getelementptr inbounds [110 x i8], [110 x i8]* %9, i64 0, i64 %161
  store i8 %159, i8* %162, align 1
  br label %163

163:                                              ; preds = %138, %105
  br label %164

164:                                              ; preds = %163
  %165 = load i32, i32* %3, align 4
  %166 = add nsw i32 %165, 1
  store i32 %166, i32* %3, align 4
  br label %89

167:                                              ; preds = %89
  %168 = load i32, i32* %5, align 4
  %169 = sub nsw i32 %168, 1
  store i32 %169, i32* %3, align 4
  br label %170

170:                                              ; preds = %182, %167
  %171 = load i32, i32* %3, align 4
  %172 = icmp sge i32 %171, 0
  br i1 %172, label %173, label %185

173:                                              ; preds = %170
  %174 = load i32, i32* %3, align 4
  %175 = sext i32 %174 to i64
  %176 = getelementptr inbounds [110 x i8], [110 x i8]* %9, i64 0, i64 %175
  %177 = load i8, i8* %176, align 1
  %178 = sext i8 %177 to i32
  %179 = icmp ne i32 %178, 48
  br i1 %179, label %180, label %181

180:                                              ; preds = %173
  br label %185

181:                                              ; preds = %173
  br label %182

182:                                              ; preds = %181
  %183 = load i32, i32* %3, align 4
  %184 = add nsw i32 %183, -1
  store i32 %184, i32* %3, align 4
  br label %170

185:                                              ; preds = %180, %170
  %186 = load i32, i32* %3, align 4
  store i32 %186, i32* %4, align 4
  br label %187

187:                                              ; preds = %197, %185
  %188 = load i32, i32* %4, align 4
  %189 = icmp sge i32 %188, 0
  br i1 %189, label %190, label %200

190:                                              ; preds = %187
  %191 = load i32, i32* %4, align 4
  %192 = sext i32 %191 to i64
  %193 = getelementptr inbounds [110 x i8], [110 x i8]* %9, i64 0, i64 %192
  %194 = load i8, i8* %193, align 1
  %195 = sext i8 %194 to i32
  %196 = call i32 (i8*, ...) @printf(i8* getelementptr inbounds ([3 x i8], [3 x i8]* @.str.1, i64 0, i64 0), i32 %195)
  br label %197

197:                                              ; preds = %190
  %198 = load i32, i32* %4, align 4
  %199 = add nsw i32 %198, -1
  store i32 %199, i32* %4, align 4
  br label %187

200:                                              ; preds = %187
  %201 = call i32 (i8*, ...) @printf(i8* getelementptr inbounds ([2 x i8], [2 x i8]* @.str.2, i64 0, i64 0))
  %202 = getelementptr inbounds [110 x i8], [110 x i8]* %9, i64 0, i64 0
  %203 = call i32 (i8*, ...) bitcast (i32 (...)* @gets to i32 (i8*, ...)*)(i8* %202)
  br label %204

204:                                              ; preds = %200
  %205 = load i32, i32* %2, align 4
  %206 = add nsw i32 %205, -1
  store i32 %206, i32* %2, align 4
  br label %13

207:                                              ; preds = %13
  %208 = load i32, i32* %1, align 4
  ret i32 %208
}

declare dso_local i32 @__isoc99_scanf(i8*, ...) #1

declare dso_local i32 @gets(...) #1

; Function Attrs: nounwind readonly
declare dso_local i64 @strlen(i8*) #2

declare dso_local i32 @printf(i8*, ...) #1


!llvm.module.flags = !{!0}
!llvm.ident = !{!1}

!0 = !{i32 1, !"wchar_size", i32 4}
!1 = !{!"clang version 10.0.0-4ubuntu1 "}
